target datalayout = "e-m:e-p270:32:32-p271:32:32-p272:64:64-i64:64-i128:128-f80:128-n8:16:32:64-S128"
target triple = "x86_64-pc-linux-gnu"

%struct.Ivy_Obj_t_ = type { i32, i32, i32, i32, ptr, ptr, ptr, ptr, ptr, ptr, ptr, ptr }
%struct.Ivy_FraigMan_t_ = type { ptr, i64, i64, ptr, ptr, i32, ptr, ptr, i32, ptr, ptr, %struct.Ivy_FraigList_t_, %struct.Ivy_FraigList_t_, i32, ptr, i32, ptr, ptr, i32, i32, i32, i32, i32, i32, i32, i32, i32, i32, i32, i32, i32, i64, i64, i64, i64, i64, i64, i64, i64, i64, i64 }
%struct.Ivy_FraigList_t_ = type { ptr, ptr, i32 }
%struct.Vec_Ptr_t_ = type { i32, i32, ptr }

; Function Attrs: inlinehint nounwind uwtable
define internal i32 @toLitCond(i32 noundef %0, i32 noundef %1) #4 {
  %3 = alloca i32, align 4
  %4 = alloca i32, align 4
  store i32 %0, ptr %3, align 4, !tbaa !44
  store i32 %1, ptr %4, align 4, !tbaa !44
  %5 = load i32, ptr %3, align 4, !tbaa !44
  %6 = load i32, ptr %3, align 4, !tbaa !44
  %7 = add nsw i32 %5, %6
  %8 = load i32, ptr %4, align 4, !tbaa !44
  %9 = icmp ne i32 %8, 0
  %10 = zext i1 %9 to i32
  %11 = add nsw i32 %7, %10
  ret i32 %11
}

; Function Attrs: inlinehint nounwind uwtable
define internal i32 @Ivy_IsComplement(ptr noundef %0) #4 {
  %2 = alloca ptr, align 8
  store ptr %0, ptr %2, align 8, !tbaa !72
  %3 = load ptr, ptr %2, align 8, !tbaa !72
  %4 = ptrtoint ptr %3 to i64
  %5 = and i64 %4, 1
  %6 = trunc i64 %5 to i32
  ret i32 %6
}

; Function Attrs: inlinehint nounwind uwtable
define internal i32 @Ivy_ObjSatNum(ptr noundef %0) #4 {
  %2 = alloca ptr, align 8
  store ptr %0, ptr %2, align 8, !tbaa !72
  %3 = load ptr, ptr %2, align 8, !tbaa !72
  %4 = getelementptr inbounds nuw %struct.Ivy_Obj_t_, ptr %3, i32 0, i32 7
  %5 = load ptr, ptr %4, align 8, !tbaa !79
  %6 = ptrtoint ptr %5 to i64
  %7 = trunc i64 %6 to i32
  ret i32 %7
}

; Function Attrs: inlinehint nounwind uwtable
define internal ptr @Ivy_Regular(ptr noundef %0) #4 {
  %2 = alloca ptr, align 8
  store ptr %0, ptr %2, align 8, !tbaa !72
  %3 = load ptr, ptr %2, align 8, !tbaa !72
  %4 = ptrtoint ptr %3 to i64
  %5 = and i64 %4, -2
  %6 = inttoptr i64 %5 to ptr
  ret ptr %6
}

; Function Attrs: inlinehint nounwind uwtable
define internal ptr @Vec_PtrEntry(ptr noundef %0, i32 noundef %1) #4 {
  %3 = alloca ptr, align 8
  %4 = alloca i32, align 4
  store ptr %0, ptr %3, align 8, !tbaa !130
  store i32 %1, ptr %4, align 4, !tbaa !44
  %5 = load ptr, ptr %3, align 8, !tbaa !130
  %6 = getelementptr inbounds nuw %struct.Vec_Ptr_t_, ptr %5, i32 0, i32 2
  %7 = load ptr, ptr %6, align 8, !tbaa !133
  %8 = load i32, ptr %4, align 4, !tbaa !44
  %9 = sext i32 %8 to i64
  %10 = getelementptr inbounds ptr, ptr %7, i64 %9
  %11 = load ptr, ptr %10, align 8, !tbaa !22
  ret ptr %11
}

; Function Attrs: inlinehint nounwind uwtable
define internal i32 @Vec_PtrSize(ptr noundef %0) #4 {
  %2 = alloca ptr, align 8
  store ptr %0, ptr %2, align 8, !tbaa !130
  %3 = load ptr, ptr %2, align 8, !tbaa !130
  %4 = getelementptr inbounds nuw %struct.Vec_Ptr_t_, ptr %3, i32 0, i32 1
  %5 = load i32, ptr %4, align 4, !tbaa !131
  ret i32 %5
}

; Function Attrs: nounwind uwtable
define void @Ivy_FraigAddClausesSuper(ptr noundef %0, ptr noundef %1, ptr noundef %2) #0 {
  %4 = alloca ptr, align 8
  %5 = alloca ptr, align 8
  %6 = alloca ptr, align 8
  %7 = alloca ptr, align 8
  %8 = alloca ptr, align 8
  %9 = alloca i32, align 4
  %10 = alloca i32, align 4
  %11 = alloca i32, align 4
  store ptr %0, ptr %4, align 8, !tbaa !60
  store ptr %1, ptr %5, align 8, !tbaa !72
  store ptr %2, ptr %6, align 8, !tbaa !130
  call void @llvm.lifetime.start.p0(i64 8, ptr %7) #12
  call void @llvm.lifetime.start.p0(i64 8, ptr %8) #12
  call void @llvm.lifetime.start.p0(i64 4, ptr %9) #12
  call void @llvm.lifetime.start.p0(i64 4, ptr %10) #12
  call void @llvm.lifetime.start.p0(i64 4, ptr %11) #12
  %12 = load ptr, ptr %6, align 8, !tbaa !130
  %13 = call i32 @Vec_PtrSize(ptr noundef %12)
  %14 = add nsw i32 %13, 1
  store i32 %14, ptr %9, align 4, !tbaa !44
  %15 = load i32, ptr %9, align 4, !tbaa !44
  %16 = sext i32 %15 to i64
  %17 = mul i64 4, %16
  %18 = call noalias ptr @malloc(i64 noundef %17) #13
  store ptr %18, ptr %8, align 8, !tbaa !139
  store i32 0, ptr %11, align 4, !tbaa !44
  br label %19

19:                                               ; preds = %51, %3
  %20 = load i32, ptr %11, align 4, !tbaa !44
  %21 = load ptr, ptr %6, align 8, !tbaa !130
  %22 = call i32 @Vec_PtrSize(ptr noundef %21)
  %23 = icmp slt i32 %20, %22
  br i1 %23, label %24, label %28

24:                                               ; preds = %19
  %25 = load ptr, ptr %6, align 8, !tbaa !130
  %26 = load i32, ptr %11, align 4, !tbaa !44
  %27 = call ptr @Vec_PtrEntry(ptr noundef %25, i32 noundef %26)
  store ptr %27, ptr %7, align 8, !tbaa !72
  br label %28

28:                                               ; preds = %24, %19
  %29 = phi i1 [ false, %19 ], [ true, %24 ]
  br i1 %29, label %30, label %54

30:                                               ; preds = %28
  %31 = load ptr, ptr %7, align 8, !tbaa !72
  %32 = call ptr @Ivy_Regular(ptr noundef %31)
  %33 = call i32 @Ivy_ObjSatNum(ptr noundef %32)
  %34 = load ptr, ptr %7, align 8, !tbaa !72
  %35 = call i32 @Ivy_IsComplement(ptr noundef %34)
  %36 = call i32 @toLitCond(i32 noundef %33, i32 noundef %35)
  %37 = load ptr, ptr %8, align 8, !tbaa !139
  %38 = getelementptr inbounds i32, ptr %37, i64 0
  store i32 %36, ptr %38, align 4, !tbaa !44
  %39 = load ptr, ptr %5, align 8, !tbaa !72
  %40 = call i32 @Ivy_ObjSatNum(ptr noundef %39)
  %41 = call i32 @toLitCond(i32 noundef %40, i32 noundef 1)
  %42 = load ptr, ptr %8, align 8, !tbaa !139
  %43 = getelementptr inbounds i32, ptr %42, i64 1
  store i32 %41, ptr %43, align 4, !tbaa !44
  %44 = load ptr, ptr %4, align 8, !tbaa !60
  %45 = getelementptr inbounds nuw %struct.Ivy_FraigMan_t_, ptr %44, i32 0, i32 14
  %46 = load ptr, ptr %45, align 8, !tbaa !87
  %47 = load ptr, ptr %8, align 8, !tbaa !139
  %48 = load ptr, ptr %8, align 8, !tbaa !139
  %49 = getelementptr inbounds i32, ptr %48, i64 2
  %50 = call i32 @sat_solver_addclause(ptr noundef %46, ptr noundef %47, ptr noundef %49)
  store i32 %50, ptr %10, align 4, !tbaa !44
  br label %51

51:                                               ; preds = %30
  %52 = load i32, ptr %11, align 4, !tbaa !44
  %53 = add nsw i32 %52, 1
  store i32 %53, ptr %11, align 4, !tbaa !44
  br label %19, !llvm.loop !207

54:                                               ; preds = %28
  store i32 0, ptr %11, align 4, !tbaa !44
  br label %55

55:                                               ; preds = %80, %54
  %56 = load i32, ptr %11, align 4, !tbaa !44
  %57 = load ptr, ptr %6, align 8, !tbaa !130
  %58 = call i32 @Vec_PtrSize(ptr noundef %57)
  %59 = icmp slt i32 %56, %58
  br i1 %59, label %60, label %64

60:                                               ; preds = %55
  %61 = load ptr, ptr %6, align 8, !tbaa !130
  %62 = load i32, ptr %11, align 4, !tbaa !44
  %63 = call ptr @Vec_PtrEntry(ptr noundef %61, i32 noundef %62)
  store ptr %63, ptr %7, align 8, !tbaa !72
  br label %64

64:                                               ; preds = %60, %55
  %65 = phi i1 [ false, %55 ], [ true, %60 ]
  br i1 %65, label %66, label %83

66:                                               ; preds = %64
  %67 = load ptr, ptr %7, align 8, !tbaa !72
  %68 = call ptr @Ivy_Regular(ptr noundef %67)
  %69 = call i32 @Ivy_ObjSatNum(ptr noundef %68)
  %70 = load ptr, ptr %7, align 8, !tbaa !72
  %71 = call i32 @Ivy_IsComplement(ptr noundef %70)
  %72 = icmp ne i32 %71, 0
  %73 = xor i1 %72, true
  %74 = zext i1 %73 to i32
  %75 = call i32 @toLitCond(i32 noundef %69, i32 noundef %74)
  %76 = load ptr, ptr %8, align 8, !tbaa !139
  %77 = load i32, ptr %11, align 4, !tbaa !44
  %78 = sext i32 %77 to i64
  %79 = getelementptr inbounds i32, ptr %76, i64 %78
  store i32 %75, ptr %79, align 4, !tbaa !44
  br label %80

80:                                               ; preds = %66
  %81 = load i32, ptr %11, align 4, !tbaa !44
  %82 = add nsw i32 %81, 1
  store i32 %82, ptr %11, align 4, !tbaa !44
  br label %55, !llvm.loop !208

83:                                               ; preds = %64
  %84 = load ptr, ptr %5, align 8, !tbaa !72
  %85 = call i32 @Ivy_ObjSatNum(ptr noundef %84)
  %86 = call i32 @toLitCond(i32 noundef %85, i32 noundef 0)
  %87 = load ptr, ptr %8, align 8, !tbaa !139
  %88 = load i32, ptr %9, align 4, !tbaa !44
  %89 = sub nsw i32 %88, 1
  %90 = sext i32 %89 to i64
  %91 = getelementptr inbounds i32, ptr %87, i64 %90
  store i32 %86, ptr %91, align 4, !tbaa !44
  %92 = load ptr, ptr %4, align 8, !tbaa !60
  %93 = getelementptr inbounds nuw %struct.Ivy_FraigMan_t_, ptr %92, i32 0, i32 14
  %94 = load ptr, ptr %93, align 8, !tbaa !87
  %95 = load ptr, ptr %8, align 8, !tbaa !139
  %96 = load ptr, ptr %8, align 8, !tbaa !139
  %97 = load i32, ptr %9, align 4, !tbaa !44
  %98 = sext i32 %97 to i64
  %99 = getelementptr inbounds i32, ptr %96, i64 %98
  %100 = call i32 @sat_solver_addclause(ptr noundef %94, ptr noundef %95, ptr noundef %99)
  store i32 %100, ptr %10, align 4, !tbaa !44
  %101 = load ptr, ptr %8, align 8, !tbaa !139
  %102 = icmp ne ptr %101, null
  br i1 %102, label %103, label %105

103:                                              ; preds = %83
  %104 = load ptr, ptr %8, align 8, !tbaa !139
  call void @free(ptr noundef %104) #12
  store ptr null, ptr %8, align 8, !tbaa !139
  br label %106

105:                                              ; preds = %83
  br label %106

106:                                              ; preds = %105, %103
  call void @llvm.lifetime.end.p0(i64 4, ptr %11) #12
  call void @llvm.lifetime.end.p0(i64 4, ptr %10) #12
  call void @llvm.lifetime.end.p0(i64 4, ptr %9) #12
  call void @llvm.lifetime.end.p0(i64 8, ptr %8) #12
  call void @llvm.lifetime.end.p0(i64 8, ptr %7) #12
  ret void
}