; Function Attrs: nounwind uwtable
define void @Ivy_FraigAddClausesSuper(ptr noundef readonly captures(none) %0, ptr noundef readonly captures(none) %1, ptr noundef readonly captures(none) %2) local_unnamed_addr #2 {
  %4 = getelementptr i8, ptr %2, i64 4
  %.val37 = load i32, ptr %4, align 4, !tbaa !47
  %5 = add nsw i32 %.val37, 1
  %6 = sext i32 %5 to i64
  %7 = shl nsw i64 %6, 2
  %8 = tail call noalias ptr @malloc(i64 noundef %7) #27
  %9 = icmp sgt i32 %.val37, 0
  br i1 %9, label %.lr.ph, label %.critedge._crit_edge

.lr.ph:                                           ; preds = %3
  %10 = getelementptr i8, ptr %2, i64 8
  %11 = getelementptr i8, ptr %1, i64 40
  %12 = getelementptr inbounds nuw i8, ptr %8, i64 4
  %13 = getelementptr inbounds nuw i8, ptr %0, i64 144
  %14 = getelementptr inbounds nuw i8, ptr %8, i64 8
  br label %17

.critedge.preheader:                              ; preds = %17
  %15 = icmp sgt i32 %.val36, 0
  br i1 %15, label %.lr.ph47, label %.critedge._crit_edge

.lr.ph47:                                         ; preds = %.critedge.preheader
  %16 = getelementptr i8, ptr %2, i64 8
  %.val38 = load ptr, ptr %16, align 8, !tbaa !49
  %wide.trip.count = zext nneg i32 %.val36 to i64
  br label %.critedge

17:                                               ; preds = %.lr.ph, %17
  %indvars.iv = phi i64 [ 0, %.lr.ph ], [ %indvars.iv.next, %17 ]
  %.val39 = load ptr, ptr %10, align 8, !tbaa !49
  %18 = getelementptr inbounds nuw ptr, ptr %.val39, i64 %indvars.iv
  %19 = load ptr, ptr %18, align 8, !tbaa !51
  %20 = ptrtoint ptr %19 to i64
  %21 = and i64 %20, -2
  %22 = inttoptr i64 %21 to ptr
  %23 = getelementptr i8, ptr %22, i64 40
  %.val43 = load ptr, ptr %23, align 8, !tbaa !126
  %24 = ptrtoint ptr %.val43 to i64
  %25 = trunc i64 %24 to i32
  %26 = trunc i64 %20 to i32
  %27 = and i32 %26, 1
  %28 = shl nsw i32 %25, 1
  %29 = or disjoint i32 %28, %27
  store i32 %29, ptr %8, align 4, !tbaa !38
  %.val42 = load ptr, ptr %11, align 8, !tbaa !126
  %30 = ptrtoint ptr %.val42 to i64
  %31 = trunc i64 %30 to i32
  %32 = shl nsw i32 %31, 1
  %33 = or disjoint i32 %32, 1
  store i32 %33, ptr %12, align 4, !tbaa !38
  %34 = load ptr, ptr %13, align 8, !tbaa !71
  %35 = tail call i32 @sat_solver_addclause(ptr noundef %34, ptr noundef nonnull %8, ptr noundef nonnull %14) #26
  %indvars.iv.next = add nuw nsw i64 %indvars.iv, 1
  %.val36 = load i32, ptr %4, align 4, !tbaa !47
  %36 = sext i32 %.val36 to i64
  %37 = icmp slt i64 %indvars.iv.next, %36
  br i1 %37, label %17, label %.critedge.preheader, !llvm.loop !209

.critedge:                                        ; preds = %.lr.ph47, %.critedge
  %indvars.iv50 = phi i64 [ 0, %.lr.ph47 ], [ %indvars.iv.next51, %.critedge ]
  %38 = getelementptr inbounds nuw ptr, ptr %.val38, i64 %indvars.iv50
  %39 = load ptr, ptr %38, align 8, !tbaa !51
  %40 = ptrtoint ptr %39 to i64
  %41 = and i64 %40, -2
  %42 = inttoptr i64 %41 to ptr
  %43 = getelementptr i8, ptr %42, i64 40
  %.val41 = load ptr, ptr %43, align 8, !tbaa !126
  %44 = ptrtoint ptr %.val41 to i64
  %45 = trunc i64 %44 to i32
  %46 = trunc i64 %40 to i32
  %47 = and i32 %46, 1
  %48 = shl nsw i32 %45, 1
  %49 = or disjoint i32 %48, %47
  %50 = xor i32 %49, 1
  %51 = getelementptr inbounds nuw i32, ptr %8, i64 %indvars.iv50
  store i32 %50, ptr %51, align 4, !tbaa !38
  %indvars.iv.next51 = add nuw nsw i64 %indvars.iv50, 1
  %exitcond.not = icmp eq i64 %indvars.iv.next51, %wide.trip.count
  br i1 %exitcond.not, label %.critedge._crit_edge, label %.critedge, !llvm.loop !210

.critedge._crit_edge:                             ; preds = %.critedge, %3, %.critedge.preheader
  %52 = getelementptr i8, ptr %1, i64 40
  %.val40 = load ptr, ptr %52, align 8, !tbaa !126
  %53 = ptrtoint ptr %.val40 to i64
  %54 = trunc i64 %53 to i32
  %55 = shl nsw i32 %54, 1
  %56 = sext i32 %.val37 to i64
  %57 = getelementptr inbounds i32, ptr %8, i64 %56
  store i32 %55, ptr %57, align 4, !tbaa !38
  %58 = getelementptr inbounds nuw i8, ptr %0, i64 144
  %59 = load ptr, ptr %58, align 8, !tbaa !71
  %60 = getelementptr inbounds i32, ptr %8, i64 %6
  %61 = tail call i32 @sat_solver_addclause(ptr noundef %59, ptr noundef %8, ptr noundef %60) #26
  tail call void @free(ptr noundef %8) #26
  ret void
}